; Function Attrs: noreturn nounwind uwtable
define internal noundef { i64, i64 } @js_std_exit(ptr noundef %0, i64 %1, i64 %2, i32 %3, ptr nocapture noundef readonly %4) #17 {
  %6 = alloca i32, align 4
  %7 = load i64, ptr %4, align 8
  %8 = getelementptr inbounds i8, ptr %4, i64 8
  %9 = load i64, ptr %8, align 8
  %10 = call i32 @JS_ToInt32(ptr noundef %0, ptr noundef nonnull %6, i64 %7, i64 %9) #29
  %.not = icmp eq i32 %10, 0
  br i1 %.not, label %._crit_edge, label %11

._crit_edge:                                      ; preds = %5
  %.pre = load i32, ptr %6, align 4
  br label %12

11:                                               ; preds = %5
  store i32 -1, ptr %6, align 4
  br label %12

12:                                               ; preds = %._crit_edge, %11
  %13 = phi i32 [ %.pre, %._crit_edge ], [ -1, %11 ]
  call void @exit(i32 noundef %13) #33
  unreachable
}